target datalayout = "e-m:e-p270:32:32-p271:32:32-p272:64:64-i64:64-i128:128-f80:128-n8:16:32:64-S128"
target triple = "x86_64-pc-linux-gnu"

%struct.UFILE = type { ptr, ptr, ptr, %struct.u_localized_string, [1024 x i16], i8, i32 }
%struct.u_localized_string = type { ptr, ptr, ptr, %struct.ULocaleBundle }
%struct.ULocaleBundle = type { ptr, [5 x ptr], i8 }

; Function Attrs: mustprogress uwtable
define void @u_fflush_77(ptr noundef %0) #0 {
  %2 = alloca ptr, align 8
  store ptr %0, ptr %2, align 8, !tbaa !13
  %3 = load ptr, ptr %2, align 8, !tbaa !13
  call void @_Z23ufile_flush_translit_77P5UFILE(ptr noundef %3)
  %4 = load ptr, ptr %2, align 8, !tbaa !13
  call void @_Z17ufile_flush_io_77P5UFILE(ptr noundef %4)
  %5 = load ptr, ptr %2, align 8, !tbaa !13
  %6 = getelementptr inbounds nuw %struct.UFILE, ptr %5, i32 0, i32 1
  %7 = load ptr, ptr %6, align 8, !tbaa !22
  %8 = icmp ne ptr %7, null
  br i1 %8, label %9, label %14

9:                                                ; preds = %1
  %10 = load ptr, ptr %2, align 8, !tbaa !13
  %11 = getelementptr inbounds nuw %struct.UFILE, ptr %10, i32 0, i32 1
  %12 = load ptr, ptr %11, align 8, !tbaa !22
  %13 = call i32 @fflush(ptr noundef %12)
  br label %31

14:                                               ; preds = %1
  %15 = load ptr, ptr %2, align 8, !tbaa !13
  %16 = getelementptr inbounds nuw %struct.UFILE, ptr %15, i32 0, i32 3
  %17 = getelementptr inbounds nuw %struct.u_localized_string, ptr %16, i32 0, i32 0
  %18 = load ptr, ptr %17, align 8, !tbaa !24
  %19 = load ptr, ptr %2, align 8, !tbaa !13
  %20 = getelementptr inbounds nuw %struct.UFILE, ptr %19, i32 0, i32 3
  %21 = getelementptr inbounds nuw %struct.u_localized_string, ptr %20, i32 0, i32 1
  %22 = load ptr, ptr %21, align 8, !tbaa !25
  %23 = icmp ult ptr %18, %22
  br i1 %23, label %24, label %30

24:                                               ; preds = %14
  %25 = load ptr, ptr %2, align 8, !tbaa !13
  %26 = getelementptr inbounds nuw %struct.UFILE, ptr %25, i32 0, i32 3
  %27 = getelementptr inbounds nuw %struct.u_localized_string, ptr %26, i32 0, i32 0
  %28 = load ptr, ptr %27, align 8, !tbaa !24
  %29 = getelementptr inbounds nuw i16, ptr %28, i32 1
  store ptr %29, ptr %27, align 8, !tbaa !24
  store i16 0, ptr %28, align 2, !tbaa !37
  br label %30

30:                                               ; preds = %24, %14
  br label %31

31:                                               ; preds = %30, %9
  ret void
}

; Function Attrs: mustprogress uwtable
define void @u_fclose_77(ptr noundef %0) #0 {
  %2 = alloca ptr, align 8
  store ptr %0, ptr %2, align 8, !tbaa !13
  %3 = load ptr, ptr %2, align 8, !tbaa !13
  %4 = icmp ne ptr %3, null
  br i1 %4, label %5, label %25

5:                                                ; preds = %1
  %6 = load ptr, ptr %2, align 8, !tbaa !13
  call void @u_fflush_77(ptr noundef %6)
  %7 = load ptr, ptr %2, align 8, !tbaa !13
  call void @_Z23ufile_close_translit_77P5UFILE(ptr noundef %7)
  %8 = load ptr, ptr %2, align 8, !tbaa !13
  %9 = getelementptr inbounds nuw %struct.UFILE, ptr %8, i32 0, i32 5
  %10 = load i8, ptr %9, align 8, !tbaa !27
  %11 = icmp ne i8 %10, 0
  br i1 %11, label %12, label %17

12:                                               ; preds = %5
  %13 = load ptr, ptr %2, align 8, !tbaa !13
  %14 = getelementptr inbounds nuw %struct.UFILE, ptr %13, i32 0, i32 1
  %15 = load ptr, ptr %14, align 8, !tbaa !22
  %16 = call i32 @fclose(ptr noundef %15)
  br label %17

17:                                               ; preds = %12, %5
  %18 = load ptr, ptr %2, align 8, !tbaa !13
  %19 = getelementptr inbounds nuw %struct.UFILE, ptr %18, i32 0, i32 3
  %20 = getelementptr inbounds nuw %struct.u_localized_string, ptr %19, i32 0, i32 3
  call void @u_locbund_close_77(ptr noundef %20)
  %21 = load ptr, ptr %2, align 8, !tbaa !13
  %22 = getelementptr inbounds nuw %struct.UFILE, ptr %21, i32 0, i32 2
  %23 = load ptr, ptr %22, align 8, !tbaa !26
  call void @ucnv_close_77(ptr noundef %23)
  %24 = load ptr, ptr %2, align 8, !tbaa !13
  call void @uprv_free_77(ptr noundef %24)
  br label %25

25:                                               ; preds = %17, %1
  ret void
}