; Function Attrs: mustprogress uwtable
define void @u_fclose_77(ptr noundef %0) local_unnamed_addr #0 {
  %.not = icmp eq ptr %0, null
  br i1 %.not, label %24, label %2

2:                                                ; preds = %1
  tail call void @_Z23ufile_flush_translit_77P5UFILE(ptr noundef nonnull %0)
  tail call void @_Z17ufile_flush_io_77P5UFILE(ptr noundef nonnull %0)
  %3 = getelementptr inbounds nuw i8, ptr %0, i64 8
  %4 = load ptr, ptr %3, align 8, !tbaa !17
  %.not.i = icmp eq ptr %4, null
  br i1 %.not.i, label %7, label %5

5:                                                ; preds = %2
  %6 = tail call i32 @fflush(ptr noundef nonnull %4)
  br label %u_fflush_77.exit

7:                                                ; preds = %2
  %8 = getelementptr inbounds nuw i8, ptr %0, i64 24
  %9 = load ptr, ptr %8, align 8, !tbaa !19
  %10 = getelementptr inbounds nuw i8, ptr %0, i64 32
  %11 = load ptr, ptr %10, align 8, !tbaa !20
  %12 = icmp ult ptr %9, %11
  br i1 %12, label %13, label %u_fflush_77.exit

13:                                               ; preds = %7
  %14 = getelementptr inbounds nuw i8, ptr %9, i64 2
  store ptr %14, ptr %8, align 8, !tbaa !19
  store i16 0, ptr %9, align 2, !tbaa !27
  br label %u_fflush_77.exit

u_fflush_77.exit:                                 ; preds = %5, %7, %13
  tail call void @_Z23ufile_close_translit_77P5UFILE(ptr noundef nonnull %0)
  %15 = getelementptr inbounds nuw i8, ptr %0, i64 2152
  %16 = load i8, ptr %15, align 8, !tbaa !23
  %.not8 = icmp eq i8 %16, 0
  br i1 %.not8, label %20, label %17

17:                                               ; preds = %u_fflush_77.exit
  %18 = load ptr, ptr %3, align 8, !tbaa !17
  %19 = tail call i32 @fclose(ptr noundef %18)
  br label %20

20:                                               ; preds = %17, %u_fflush_77.exit
  %21 = getelementptr inbounds nuw i8, ptr %0, i64 48
  tail call void @u_locbund_close_77(ptr noundef nonnull %21)
  %22 = getelementptr inbounds nuw i8, ptr %0, i64 16
  %23 = load ptr, ptr %22, align 8, !tbaa !22
  tail call void @ucnv_close_77(ptr noundef %23)
  tail call void @uprv_free_77(ptr noundef nonnull %0)
  br label %24

24:                                               ; preds = %20, %1
  ret void
}